; Function Attrs: mustprogress uwtable
define void @_ZN3zmq5msg_t14reset_metadataEv(ptr noundef nonnull align 8 captures(none) dereferenceable(64) %0) local_unnamed_addr #1 align 2 personality ptr @__gxx_personality_v0 {
  %2 = load ptr, ptr %0, align 8, !tbaa !3
  %.not = icmp eq ptr %2, null
  br i1 %.not, label %16, label %3

3:                                                ; preds = %1
  %4 = tail call noundef zeroext i1 @_ZN3zmq10metadata_t8drop_refEv(ptr noundef nonnull align 8 dereferenceable(56) %2)
  br i1 %4, label %5, label %15

5:                                                ; preds = %3
  %6 = load ptr, ptr %0, align 8, !tbaa !3
  %7 = icmp eq ptr %6, null
  br i1 %7, label %15, label %8

8:                                                ; preds = %5
  %9 = getelementptr inbounds nuw i8, ptr %6, i64 8
  %10 = getelementptr inbounds nuw i8, ptr %6, i64 24
  %11 = load ptr, ptr %10, align 8, !tbaa !24
  invoke void @_ZNSt8_Rb_treeINSt7__cxx1112basic_stringIcSt11char_traitsIcESaIcEEESt4pairIKS5_S5_ESt10_Select1stIS8_ESt4lessIS5_ESaIS8_EE8_M_eraseEPSt13_Rb_tree_nodeIS8_E(ptr noundef nonnull align 8 dereferenceable(48) %9, ptr noundef %11)
          to label %_ZN3zmq10metadata_tD2Ev.exit unwind label %12

12:                                               ; preds = %8
  %13 = landingpad { ptr, i32 }
          catch ptr null
  %14 = extractvalue { ptr, i32 } %13, 0
  tail call void @__clang_call_terminate(ptr %14) #24
  unreachable

_ZN3zmq10metadata_tD2Ev.exit:                     ; preds = %8
  tail call void @_ZdlPv(ptr noundef nonnull %6) #25
  br label %15

15:                                               ; preds = %5, %_ZN3zmq10metadata_tD2Ev.exit, %3
  store ptr null, ptr %0, align 8, !tbaa !3
  br label %16

16:                                               ; preds = %15, %1
  ret void
}